; Function Attrs: mustprogress uwtable
define void @_ZN8facebook5velox9functions17jsonExtractScalarERKNSt7__cxx1112basic_stringIcSt11char_traitsIcESaIcEEES9_(ptr noalias sret(%"class.folly::Optional.14") align 8 %agg.result, ptr noundef nonnull align 8 dereferenceable(32) %json, ptr noundef nonnull align 8 dereferenceable(32) %path) local_unnamed_addr #2 {
entry:
  %call.i = tail call noundef ptr @_ZNKSt7__cxx1112basic_stringIcSt11char_traitsIcESaIcEE4dataEv(ptr noundef nonnull align 8 dereferenceable(32) %json) #1
  %call3.i = tail call noundef i64 @_ZNKSt7__cxx1112basic_stringIcSt11char_traitsIcESaIcEE4sizeEv(ptr noundef nonnull align 8 dereferenceable(32) %json) #1
  %add.ptr.i = getelementptr inbounds i8, ptr %call.i, i64 %call3.i
  %call.i1 = tail call noundef ptr @_ZNKSt7__cxx1112basic_stringIcSt11char_traitsIcESaIcEE4dataEv(ptr noundef nonnull align 8 dereferenceable(32) %path) #1
  %call3.i3 = tail call noundef i64 @_ZNKSt7__cxx1112basic_stringIcSt11char_traitsIcESaIcEE4sizeEv(ptr noundef nonnull align 8 dereferenceable(32) %path) #1
  %add.ptr.i4 = getelementptr inbounds i8, ptr %call.i1, i64 %call3.i3
  tail call void @_ZN8facebook5velox9functions17jsonExtractScalarB5cxx11EN5folly5RangeIPKcEES6_(ptr sret(%"class.folly::Optional.14") align 8 %agg.result, ptr %call.i, ptr %add.ptr.i, ptr %call.i1, ptr %add.ptr.i4)
  ret void
}